; ModuleID = 'source-C-CXX/55/371.c'
source_filename = "source-C-CXX/55/371.c"
target datalayout = "e-m:e-p270:32:32-p271:32:32-p272:64:64-i64:64-f80:128-n8:16:32:64-S128"
target triple = "x86_64-pc-linux-gnu"

@.str = private unnamed_addr constant [3 x i8] c"%s\00", align 1

; Function Attrs: nofree nounwind sspstrong uwtable
define dso_local i32 @main(i32 %0, i8** nocapture readnone %1) local_unnamed_addr #0 {
  %3 = alloca [6 x i8], align 1
  %4 = alloca [6 x i8], align 1
  %5 = getelementptr inbounds [6 x i8], [6 x i8]* %3, i64 0, i64 0
  call void @llvm.lifetime.start.p0i8(i64 6, i8* nonnull %5) #4
  %6 = getelementptr inbounds [6 x i8], [6 x i8]* %4, i64 0, i64 0
  call void @llvm.lifetime.start.p0i8(i64 6, i8* nonnull %6) #4
  %7 = call i32 (i8*, ...) @__isoc99_scanf(i8* getelementptr inbounds ([3 x i8], [3 x i8]* @.str, i64 0, i64 0), i8* nonnull %5)
  %8 = load i8, i8* %5, align 1, !tbaa !5
  %9 = icmp eq i8 %8, 0
  br i1 %9, label %30, label %11

10:                                               ; preds = %11
  br i1 %9, label %30, label %19

11:                                               ; preds = %2, %11
  %12 = phi i64 [ %15, %11 ], [ 0, %2 ]
  %13 = phi i32 [ %14, %11 ], [ 0, %2 ]
  %14 = add nuw nsw i32 %13, 1
  %15 = add nuw nsw i64 %12, 1
  %16 = getelementptr inbounds [6 x i8], [6 x i8]* %3, i64 0, i64 %15
  %17 = load i8, i8* %16, align 1, !tbaa !5
  %18 = icmp eq i8 %17, 0
  br i1 %18, label %10, label %11, !llvm.loop !8

19:                                               ; preds = %10, %19
  %20 = phi i64 [ %26, %19 ], [ 0, %10 ]
  %21 = phi i8 [ %28, %19 ], [ %8, %10 ]
  %22 = trunc i64 %20 to i32
  %23 = sub i32 %13, %22
  %24 = sext i32 %23 to i64
  %25 = getelementptr inbounds [6 x i8], [6 x i8]* %4, i64 0, i64 %24
  store i8 %21, i8* %25, align 1, !tbaa !5
  %26 = add nuw nsw i64 %20, 1
  %27 = getelementptr inbounds [6 x i8], [6 x i8]* %3, i64 0, i64 %26
  %28 = load i8, i8* %27, align 1, !tbaa !5
  %29 = icmp eq i8 %28, 0
  br i1 %29, label %30, label %19, !llvm.loop !10

30:                                               ; preds = %19, %2, %10
  %31 = phi i32 [ %14, %10 ], [ 0, %2 ], [ %14, %19 ]
  %32 = zext i32 %31 to i64
  %33 = getelementptr inbounds [6 x i8], [6 x i8]* %4, i64 0, i64 %32
  store i8 0, i8* %33, align 1, !tbaa !5
  %34 = call i32 @puts(i8* nonnull %6)
  call void @llvm.lifetime.end.p0i8(i64 6, i8* nonnull %6) #4
  call void @llvm.lifetime.end.p0i8(i64 6, i8* nonnull %5) #4
  ret i32 0
}

; Function Attrs: argmemonly mustprogress nofree nosync nounwind willreturn
declare void @llvm.lifetime.start.p0i8(i64 immarg, i8* nocapture) #1

; Function Attrs: nofree nounwind
declare noundef i32 @__isoc99_scanf(i8* nocapture noundef readonly, ...) local_unnamed_addr #2

; Function Attrs: argmemonly mustprogress nofree nosync nounwind willreturn
declare void @llvm.lifetime.end.p0i8(i64 immarg, i8* nocapture) #1

; Function Attrs: nofree nounwind
declare noundef i32 @puts(i8* nocapture noundef readonly) local_unnamed_addr #3


!llvm.module.flags = !{!0, !1, !2, !3}
!llvm.ident = !{!4}

!0 = !{i32 1, !"wchar_size", i32 4}
!1 = !{i32 7, !"PIC Level", i32 2}
!2 = !{i32 7, !"PIE Level", i32 2}
!3 = !{i32 7, !"uwtable", i32 1}
!4 = !{!"clang version 13.0.0"}
!5 = !{!6, !6, i64 0}
!6 = !{!"omnipotent char", !7, i64 0}
!7 = !{!"Simple C/C++ TBAA"}
!8 = distinct !{!8, !9}
!9 = !{!"llvm.loop.mustprogress"}
!10 = distinct !{!10, !9}
